; Function Attrs: mustprogress nofree norecurse nosync nounwind willreturn memory(argmem: write) uwtable
define void @_ZN11TransTableL16SetMemoryDefaultEi(ptr nocapture noundef nonnull writeonly align 8 dereferenceable(664216) %0, i32 noundef %1) unnamed_addr #11 align 2 {
  %3 = shl nsw i32 %1, 10
  %4 = sitofp i32 %3 to double
  %5 = fdiv double %4, 0x40B8D76000000000
  %6 = fptosi double %5 to i32
  %7 = getelementptr inbounds nuw i8, ptr %0, i64 12
  store i32 %6, ptr %7, align 4
  ret void
}